; Function Attrs: mustprogress uwtable
define void @_ZN6casadi9LinsolLdlC2ERKNSt7__cxx1112basic_stringIcSt11char_traitsIcESaIcEEERKNS_8SparsityE(ptr noundef nonnull align 8 dereferenceable(218) %0, ptr noundef nonnull align 8 dereferenceable(32) %1, ptr noundef nonnull align 8 dereferenceable(8) %2) unnamed_addr #4 align 2 personality ptr @__gxx_personality_v0 {
  tail call void @_ZN6casadi14LinsolInternalC2ERKNSt7__cxx1112basic_stringIcSt11char_traitsIcESaIcEEERKNS_8SparsityE(ptr noundef nonnull align 8 dereferenceable(184) %0, ptr noundef nonnull align 8 dereferenceable(32) %1, ptr noundef nonnull align 8 dereferenceable(8) %2)
  store ptr getelementptr inbounds ({ [27 x ptr], [3 x ptr] }, ptr @_ZTVN6casadi9LinsolLdlE, i64 0, i32 0, i64 2), ptr %0, align 8
  %4 = getelementptr inbounds i8, ptr %0, i64 168
  store ptr getelementptr inbounds ({ [27 x ptr], [3 x ptr] }, ptr @_ZTVN6casadi9LinsolLdlE, i64 0, i32 1, i64 2), ptr %4, align 8
  %5 = getelementptr inbounds i8, ptr %0, i64 184
  tail call void @llvm.memset.p0.i64(ptr noundef nonnull align 8 dereferenceable(24) %5, i8 0, i64 24, i1 false)
  %6 = getelementptr inbounds i8, ptr %0, i64 208
  invoke void @_ZN6casadi8SparsityC1Ex(ptr noundef nonnull align 8 dereferenceable(8) %6, i64 noundef 0)
          to label %7 unwind label %8

7:                                                ; preds = %3
  ret void

8:                                                ; preds = %3
  %9 = landingpad { ptr, i32 }
          cleanup
  %10 = load ptr, ptr %5, align 8
  %.not.i.i.i = icmp eq ptr %10, null
  br i1 %.not.i.i.i, label %_ZNSt6vectorIxSaIxEED2Ev.exit, label %11

11:                                               ; preds = %8
  tail call void @_ZdlPv(ptr noundef nonnull %10) #22
  br label %_ZNSt6vectorIxSaIxEED2Ev.exit

_ZNSt6vectorIxSaIxEED2Ev.exit:                    ; preds = %8, %11
  tail call void @_ZN6casadi14LinsolInternalD2Ev(ptr noundef nonnull align 8 dereferenceable(184) %0) #20
  resume { ptr, i32 } %9
}